target datalayout = "e-m:e-p270:32:32-p271:32:32-p272:64:64-i64:64-i128:128-f80:128-n8:16:32:64-S128"
target triple = "x86_64-pc-linux-gnu"

%"class.std::__cxx11::basic_string" = type { %"struct.std::__cxx11::basic_string<char>::_Alloc_hider", i64, %union.anon.15 }
%"struct.std::__cxx11::basic_string<char>::_Alloc_hider" = type { ptr }
%union.anon.15 = type { i64, [8 x i8] }
%"struct.OpenImageIO::v3_1_0::TypeDesc" = type { i8, i8, i8, i8, i32 }
%"class.OpenImageIO::v3_1_0::TIFFInput" = type { %"class.OpenImageIO::v3_1_0::ImageInput", ptr, %"class.std::__cxx11::basic_string", %"class.std::vector.16", %"class.std::vector.16", i32, i32, i8, i8, i8, i8, i8, i8, i8, i8, i8, i32, i16, i16, i16, i16, i16, i16, %"class.std::vector.21", %"class.std::vector.26", %"class.std::vector.31" }
%"class.OpenImageIO::v3_1_0::ImageInput" = type { ptr, %"class.OpenImageIO::v3_1_0::ImageSpec", %"class.std::unique_ptr" }
%"class.OpenImageIO::v3_1_0::ImageSpec" = type { i32, i32, i32, i32, i32, i32, i32, i32, i32, i32, i32, i32, i32, i32, i32, i32, %"struct.OpenImageIO::v3_1_0::TypeDesc", %"class.std::vector", %"class.std::vector.0", i32, i32, i8, %"class.OpenImageIO::v3_1_0::ParamValueList" }
%"class.std::vector" = type { %"struct.std::_Vector_base" }
%"struct.std::_Vector_base" = type { %"struct.std::_Vector_base<OpenImageIO::v3_1_0::TypeDesc, std::allocator<OpenImageIO::v3_1_0::TypeDesc>>::_Vector_impl" }
%"struct.std::_Vector_base<OpenImageIO::v3_1_0::TypeDesc, std::allocator<OpenImageIO::v3_1_0::TypeDesc>>::_Vector_impl" = type { %"struct.std::_Vector_base<OpenImageIO::v3_1_0::TypeDesc, std::allocator<OpenImageIO::v3_1_0::TypeDesc>>::_Vector_impl_data" }
%"struct.std::_Vector_base<OpenImageIO::v3_1_0::TypeDesc, std::allocator<OpenImageIO::v3_1_0::TypeDesc>>::_Vector_impl_data" = type { ptr, ptr, ptr }
%"class.std::vector.0" = type { %"struct.std::_Vector_base.1" }
%"struct.std::_Vector_base.1" = type { %"struct.std::_Vector_base<std::__cxx11::basic_string<char>, std::allocator<std::__cxx11::basic_string<char>>>::_Vector_impl" }
%"struct.std::_Vector_base<std::__cxx11::basic_string<char>, std::allocator<std::__cxx11::basic_string<char>>>::_Vector_impl" = type { %"struct.std::_Vector_base<std::__cxx11::basic_string<char>, std::allocator<std::__cxx11::basic_string<char>>>::_Vector_impl_data" }
%"struct.std::_Vector_base<std::__cxx11::basic_string<char>, std::allocator<std::__cxx11::basic_string<char>>>::_Vector_impl_data" = type { ptr, ptr, ptr }
%"class.OpenImageIO::v3_1_0::ParamValueList" = type { %"class.std::vector.5" }
%"class.std::vector.5" = type { %"struct.std::_Vector_base.6" }
%"struct.std::_Vector_base.6" = type { %"struct.std::_Vector_base<OpenImageIO::v3_1_0::ParamValue, std::allocator<OpenImageIO::v3_1_0::ParamValue>>::_Vector_impl" }
%"struct.std::_Vector_base<OpenImageIO::v3_1_0::ParamValue, std::allocator<OpenImageIO::v3_1_0::ParamValue>>::_Vector_impl" = type { %"struct.std::_Vector_base<OpenImageIO::v3_1_0::ParamValue, std::allocator<OpenImageIO::v3_1_0::ParamValue>>::_Vector_impl_data" }
%"struct.std::_Vector_base<OpenImageIO::v3_1_0::ParamValue, std::allocator<OpenImageIO::v3_1_0::ParamValue>>::_Vector_impl_data" = type { ptr, ptr, ptr }
%"class.std::unique_ptr" = type { %"struct.std::__uniq_ptr_data" }
%"struct.std::__uniq_ptr_data" = type { %"class.std::__uniq_ptr_impl" }
%"class.std::__uniq_ptr_impl" = type { %"class.std::tuple" }
%"class.std::tuple" = type { %"struct.std::_Tuple_impl" }
%"struct.std::_Tuple_impl" = type { %"struct.std::_Tuple_impl.10", %"struct.std::_Head_base.11" }
%"struct.std::_Tuple_impl.10" = type { %"struct.std::_Head_base" }
%"struct.std::_Head_base" = type { ptr }
%"struct.std::_Head_base.11" = type { ptr }
%"class.std::vector.16" = type { %"struct.std::_Vector_base.17" }
%"struct.std::_Vector_base.17" = type { %"struct.std::_Vector_base<unsigned char, std::allocator<unsigned char>>::_Vector_impl" }
%"struct.std::_Vector_base<unsigned char, std::allocator<unsigned char>>::_Vector_impl" = type { %"struct.std::_Vector_base<unsigned char, std::allocator<unsigned char>>::_Vector_impl_data" }
%"struct.std::_Vector_base<unsigned char, std::allocator<unsigned char>>::_Vector_impl_data" = type { ptr, ptr, ptr }
%"class.std::vector.21" = type { %"struct.std::_Vector_base.22" }
%"struct.std::_Vector_base.22" = type { %"struct.std::_Vector_base<unsigned short, std::allocator<unsigned short>>::_Vector_impl" }
%"struct.std::_Vector_base<unsigned short, std::allocator<unsigned short>>::_Vector_impl" = type { %"struct.std::_Vector_base<unsigned short, std::allocator<unsigned short>>::_Vector_impl_data" }
%"struct.std::_Vector_base<unsigned short, std::allocator<unsigned short>>::_Vector_impl_data" = type { ptr, ptr, ptr }
%"class.std::vector.26" = type { %"struct.std::_Vector_base.27" }
%"struct.std::_Vector_base.27" = type { %"struct.std::_Vector_base<unsigned int, std::allocator<unsigned int>>::_Vector_impl" }
%"struct.std::_Vector_base<unsigned int, std::allocator<unsigned int>>::_Vector_impl" = type { %"struct.std::_Vector_base<unsigned int, std::allocator<unsigned int>>::_Vector_impl_data" }
%"struct.std::_Vector_base<unsigned int, std::allocator<unsigned int>>::_Vector_impl_data" = type { ptr, ptr, ptr }
%"class.std::vector.31" = type { %"struct.std::_Vector_base.32" }
%"struct.std::_Vector_base.32" = type { %"struct.std::_Vector_base<OpenImageIO::v3_1_0::ImageSpec, std::allocator<OpenImageIO::v3_1_0::ImageSpec>>::_Vector_impl" }
%"struct.std::_Vector_base<OpenImageIO::v3_1_0::ImageSpec, std::allocator<OpenImageIO::v3_1_0::ImageSpec>>::_Vector_impl" = type { %"struct.std::_Vector_base<OpenImageIO::v3_1_0::ImageSpec, std::allocator<OpenImageIO::v3_1_0::ImageSpec>>::_Vector_impl_data" }
%"struct.std::_Vector_base<OpenImageIO::v3_1_0::ImageSpec, std::allocator<OpenImageIO::v3_1_0::ImageSpec>>::_Vector_impl_data" = type { ptr, ptr, ptr }

; Function Attrs: mustprogress nounwind uwtable
define linkonce_odr noundef nonnull align 2 dereferenceable(2) ptr @_ZNSt6vectorItSaItEEixEm(ptr noundef nonnull align 8 dereferenceable(24) %0, i64 noundef %1) #7 comdat align 2 {
  %3 = alloca ptr, align 8
  %4 = alloca i64, align 8
  store ptr %0, ptr %3, align 8, !tbaa !30
  store i64 %1, ptr %4, align 8, !tbaa !109
  %5 = load ptr, ptr %3, align 8
  %6 = getelementptr inbounds nuw %"struct.std::_Vector_base.22", ptr %5, i32 0, i32 0
  %7 = getelementptr inbounds nuw %"struct.std::_Vector_base<unsigned short, std::allocator<unsigned short>>::_Vector_impl_data", ptr %6, i32 0, i32 0
  %8 = load ptr, ptr %7, align 8, !tbaa !103
  %9 = load i64, ptr %4, align 8, !tbaa !109
  %10 = getelementptr inbounds nuw i16, ptr %8, i64 %9
  ret ptr %10
}

; Function Attrs: mustprogress nounwind uwtable
define hidden void @_ZN11OpenImageIO6v3_1_09TIFFInput14palette_to_rgbEiPKhPh(ptr noundef nonnull align 8 dereferenceable(384) %0, i32 noundef %1, ptr noundef %2, ptr noundef %3) #7 align 2 {
  %5 = alloca ptr, align 8
  %6 = alloca i32, align 4
  %7 = alloca ptr, align 8
  %8 = alloca ptr, align 8
  %9 = alloca i64, align 8
  %10 = alloca i64, align 8
  %11 = alloca i32, align 4
  %12 = alloca i32, align 4
  %13 = alloca i32, align 4
  store ptr %0, ptr %5, align 8, !tbaa !24
  store i32 %1, ptr %6, align 4, !tbaa !22
  store ptr %2, ptr %7, align 8, !tbaa !18
  store ptr %3, ptr %8, align 8, !tbaa !18
  %14 = load ptr, ptr %5, align 8
  call void @llvm.lifetime.start.p0(i64 8, ptr %9) #3
  %15 = getelementptr inbounds nuw %"class.OpenImageIO::v3_1_0::TIFFInput", ptr %14, i32 0, i32 18
  %16 = load i16, ptr %15, align 2, !tbaa !156
  %17 = zext i16 %16 to i32
  %18 = sdiv i32 8, %17
  %19 = sext i32 %18 to i64
  store i64 %19, ptr %9, align 8, !tbaa !109
  call void @llvm.lifetime.start.p0(i64 8, ptr %10) #3
  %20 = getelementptr inbounds nuw %"class.OpenImageIO::v3_1_0::TIFFInput", ptr %14, i32 0, i32 18
  %21 = load i16, ptr %20, align 2, !tbaa !156
  %22 = zext i16 %21 to i32
  %23 = shl i32 1, %22
  %24 = sext i32 %23 to i64
  store i64 %24, ptr %10, align 8, !tbaa !109
  call void @llvm.lifetime.start.p0(i64 4, ptr %11) #3
  %25 = load i64, ptr %10, align 8, !tbaa !109
  %26 = sub i64 %25, 1
  %27 = trunc i64 %26 to i32
  store i32 %27, ptr %11, align 4, !tbaa !22
  call void @llvm.lifetime.start.p0(i64 4, ptr %12) #3
  store i32 0, ptr %12, align 4, !tbaa !22
  br label %28

28:                                               ; preds = %98, %4
  %29 = load i32, ptr %12, align 4, !tbaa !22
  %30 = load i32, ptr %6, align 4, !tbaa !22
  %31 = icmp slt i32 %29, %30
  br i1 %31, label %33, label %32

32:                                               ; preds = %28
  call void @llvm.lifetime.end.p0(i64 4, ptr %12) #3
  br label %101

33:                                               ; preds = %28
  call void @llvm.lifetime.start.p0(i64 4, ptr %13) #3
  %34 = load ptr, ptr %7, align 8, !tbaa !18
  %35 = load i32, ptr %12, align 4, !tbaa !22
  %36 = sext i32 %35 to i64
  %37 = load i64, ptr %9, align 8, !tbaa !109
  %38 = udiv i64 %36, %37
  %39 = getelementptr inbounds nuw i8, ptr %34, i64 %38
  %40 = load i8, ptr %39, align 1, !tbaa !137
  %41 = zext i8 %40 to i32
  store i32 %41, ptr %13, align 4, !tbaa !22
  %42 = getelementptr inbounds nuw %"class.OpenImageIO::v3_1_0::TIFFInput", ptr %14, i32 0, i32 18
  %43 = load i16, ptr %42, align 2, !tbaa !156
  %44 = zext i16 %43 to i64
  %45 = load i64, ptr %9, align 8, !tbaa !109
  %46 = sub i64 %45, 1
  %47 = load i32, ptr %12, align 4, !tbaa !22
  %48 = sext i32 %47 to i64
  %49 = load i64, ptr %9, align 8, !tbaa !109
  %50 = urem i64 %48, %49
  %51 = sub i64 %46, %50
  %52 = mul i64 %44, %51
  %53 = load i32, ptr %13, align 4, !tbaa !22
  %54 = trunc i64 %52 to i32
  %55 = ashr i32 %53, %54
  store i32 %55, ptr %13, align 4, !tbaa !22
  %56 = load i32, ptr %11, align 4, !tbaa !22
  %57 = load i32, ptr %13, align 4, !tbaa !22
  %58 = and i32 %57, %56
  store i32 %58, ptr %13, align 4, !tbaa !22
  %59 = getelementptr inbounds nuw %"class.OpenImageIO::v3_1_0::TIFFInput", ptr %14, i32 0, i32 23
  %60 = load i64, ptr %10, align 8, !tbaa !109
  %61 = mul i64 0, %60
  %62 = load i32, ptr %13, align 4, !tbaa !22
  %63 = sext i32 %62 to i64
  %64 = add i64 %61, %63
  %65 = call noundef nonnull align 2 dereferenceable(2) ptr @_ZNSt6vectorItSaItEEixEm(ptr noundef nonnull align 8 dereferenceable(24) %59, i64 noundef %64) #3
  %66 = load i16, ptr %65, align 2, !tbaa !110
  %67 = zext i16 %66 to i32
  %68 = sdiv i32 %67, 257
  %69 = trunc i32 %68 to i8
  %70 = load ptr, ptr %8, align 8, !tbaa !18
  %71 = getelementptr inbounds nuw i8, ptr %70, i32 1
  store ptr %71, ptr %8, align 8, !tbaa !18
  store i8 %69, ptr %70, align 1, !tbaa !137
  %72 = getelementptr inbounds nuw %"class.OpenImageIO::v3_1_0::TIFFInput", ptr %14, i32 0, i32 23
  %73 = load i64, ptr %10, align 8, !tbaa !109
  %74 = mul i64 1, %73
  %75 = load i32, ptr %13, align 4, !tbaa !22
  %76 = sext i32 %75 to i64
  %77 = add i64 %74, %76
  %78 = call noundef nonnull align 2 dereferenceable(2) ptr @_ZNSt6vectorItSaItEEixEm(ptr noundef nonnull align 8 dereferenceable(24) %72, i64 noundef %77) #3
  %79 = load i16, ptr %78, align 2, !tbaa !110
  %80 = zext i16 %79 to i32
  %81 = sdiv i32 %80, 257
  %82 = trunc i32 %81 to i8
  %83 = load ptr, ptr %8, align 8, !tbaa !18
  %84 = getelementptr inbounds nuw i8, ptr %83, i32 1
  store ptr %84, ptr %8, align 8, !tbaa !18
  store i8 %82, ptr %83, align 1, !tbaa !137
  %85 = getelementptr inbounds nuw %"class.OpenImageIO::v3_1_0::TIFFInput", ptr %14, i32 0, i32 23
  %86 = load i64, ptr %10, align 8, !tbaa !109
  %87 = mul i64 2, %86
  %88 = load i32, ptr %13, align 4, !tbaa !22
  %89 = sext i32 %88 to i64
  %90 = add i64 %87, %89
  %91 = call noundef nonnull align 2 dereferenceable(2) ptr @_ZNSt6vectorItSaItEEixEm(ptr noundef nonnull align 8 dereferenceable(24) %85, i64 noundef %90) #3
  %92 = load i16, ptr %91, align 2, !tbaa !110
  %93 = zext i16 %92 to i32
  %94 = sdiv i32 %93, 257
  %95 = trunc i32 %94 to i8
  %96 = load ptr, ptr %8, align 8, !tbaa !18
  %97 = getelementptr inbounds nuw i8, ptr %96, i32 1
  store ptr %97, ptr %8, align 8, !tbaa !18
  store i8 %95, ptr %96, align 1, !tbaa !137
  call void @llvm.lifetime.end.p0(i64 4, ptr %13) #3
  br label %98

98:                                               ; preds = %33
  %99 = load i32, ptr %12, align 4, !tbaa !22
  %100 = add nsw i32 %99, 1
  store i32 %100, ptr %12, align 4, !tbaa !22
  br label %28, !llvm.loop !271

101:                                              ; preds = %32
  call void @llvm.lifetime.end.p0(i64 4, ptr %11) #3
  call void @llvm.lifetime.end.p0(i64 8, ptr %10) #3
  call void @llvm.lifetime.end.p0(i64 8, ptr %9) #3
  ret void
}