; Function Attrs: mustprogress nofree norecurse nosync nounwind memory(read, argmem: readwrite, inaccessiblemem: none) uwtable
define hidden void @_ZN11OpenImageIO6v3_1_09TIFFInput14palette_to_rgbEiPKhPh(ptr noundef nonnull readonly align 8 captures(none) dereferenceable(384) %0, i32 noundef %1, ptr noundef readonly captures(none) %2, ptr noundef writeonly captures(none) %3) local_unnamed_addr #19 align 2 {
  %5 = getelementptr inbounds nuw i8, ptr %0, i64 298
  %6 = load i16, ptr %5, align 2, !tbaa !149
  %7 = zext nneg i16 %6 to i32
  %8 = udiv i16 8, %6
  %.zext = zext nneg i16 %8 to i32
  %9 = shl nuw i32 1, %7
  %10 = sext i32 %9 to i64
  %11 = add i32 %9, -1
  %12 = icmp sgt i32 %1, 0
  br i1 %12, label %.lr.ph, label %._crit_edge

.lr.ph:                                           ; preds = %4
  %13 = getelementptr inbounds nuw i8, ptr %0, i64 312
  %.idx = shl nsw i64 %10, 2
  br label %14

._crit_edge:                                      ; preds = %14, %4
  ret void

14:                                               ; preds = %.lr.ph, %14
  %.024 = phi ptr [ %3, %.lr.ph ], [ %48, %14 ]
  %.02223 = phi i32 [ 0, %.lr.ph ], [ %49, %14 ]
  %15 = udiv i32 %.02223, %.zext
  %16 = zext nneg i32 %15 to i64
  %17 = getelementptr inbounds nuw i8, ptr %2, i64 %16
  %18 = load i8, ptr %17, align 1, !tbaa !13
  %19 = zext i8 %18 to i32
  %20 = load i16, ptr %5, align 2, !tbaa !149
  %21 = zext i16 %20 to i32
  %22 = urem i32 %.02223, %.zext
  %23 = xor i32 %22, -1
  %24 = add nsw i32 %23, %.zext
  %25 = mul nsw i32 %24, %21
  %26 = lshr i32 %19, %25
  %27 = and i32 %26, %11
  %28 = zext nneg i32 %27 to i64
  %29 = load ptr, ptr %13, align 8, !tbaa !80
  %30 = getelementptr inbounds nuw i16, ptr %29, i64 %28
  %31 = load i16, ptr %30, align 2, !tbaa !95
  %32 = udiv i16 %31, 257
  %33 = trunc nuw i16 %32 to i8
  %34 = getelementptr inbounds nuw i8, ptr %.024, i64 1
  store i8 %33, ptr %.024, align 1, !tbaa !13
  %35 = load ptr, ptr %13, align 8, !tbaa !80
  %36 = getelementptr i16, ptr %35, i64 %10
  %37 = getelementptr i16, ptr %36, i64 %28
  %38 = load i16, ptr %37, align 2, !tbaa !95
  %39 = udiv i16 %38, 257
  %40 = trunc nuw i16 %39 to i8
  %41 = getelementptr inbounds nuw i8, ptr %.024, i64 2
  store i8 %40, ptr %34, align 1, !tbaa !13
  %42 = load ptr, ptr %13, align 8, !tbaa !80
  %43 = getelementptr i8, ptr %42, i64 %.idx
  %44 = getelementptr i16, ptr %43, i64 %28
  %45 = load i16, ptr %44, align 2, !tbaa !95
  %46 = udiv i16 %45, 257
  %47 = trunc nuw i16 %46 to i8
  %48 = getelementptr inbounds nuw i8, ptr %.024, i64 3
  store i8 %47, ptr %41, align 1, !tbaa !13
  %49 = add nuw nsw i32 %.02223, 1
  %exitcond.not = icmp eq i32 %49, %1
  br i1 %exitcond.not, label %._crit_edge, label %14, !llvm.loop !224
}